target datalayout = "e-m:e-p270:32:32-p271:32:32-p272:64:64-i64:64-i128:128-f80:128-n8:16:32:64-S128"
target triple = "x86_64-pc-linux-gnu"

%struct.PJconsts = type { ptr, ptr, ptr, ptr, ptr, ptr, ptr, ptr, ptr, ptr, ptr, ptr, i32, ptr, ptr, ptr, ptr, ptr, ptr, ptr, ptr, double, double, double, double, double, double, double, double, double, double, double, double, double, double, double, double, double, double, double, double, double, double, i32, i32, i32, i32, i32, i32, i32, i32, i32, i32, i32, ptr, ptr, ptr, ptr, ptr, ptr, double, double, double, double, double, double, double, double, double, double, double, i32, [7 x double], i32, ptr, ptr, double, double, i32, [4 x i8], %"class.std::shared_ptr", i8, double, i8, %"class.std::__cxx11::basic_string", %"class.std::__cxx11::basic_string", %"class.std::__cxx11::basic_string", i8, %"class.std::vector", i32, %"class.std::vector.3", i32, i8, i8, i8, ptr }
%"class.std::shared_ptr" = type { %"class.std::__shared_ptr" }
%"class.std::__shared_ptr" = type { ptr, %"class.std::__shared_count" }
%"class.std::__shared_count" = type { ptr }
%"class.std::__cxx11::basic_string" = type { %"struct.std::__cxx11::basic_string<char>::_Alloc_hider", i64, %union.anon }
%"struct.std::__cxx11::basic_string<char>::_Alloc_hider" = type { ptr }
%union.anon = type { i64, [8 x i8] }
%"class.std::vector" = type { %"struct.std::_Vector_base" }
%"struct.std::_Vector_base" = type { %"struct.std::_Vector_base<osgeo::proj::operation::GridDescription, std::allocator<osgeo::proj::operation::GridDescription>>::_Vector_impl" }
%"struct.std::_Vector_base<osgeo::proj::operation::GridDescription, std::allocator<osgeo::proj::operation::GridDescription>>::_Vector_impl" = type { %"struct.std::_Vector_base<osgeo::proj::operation::GridDescription, std::allocator<osgeo::proj::operation::GridDescription>>::_Vector_impl_data" }
%"struct.std::_Vector_base<osgeo::proj::operation::GridDescription, std::allocator<osgeo::proj::operation::GridDescription>>::_Vector_impl_data" = type { ptr, ptr, ptr }
%"class.std::vector.3" = type { %"struct.std::_Vector_base.4" }
%"struct.std::_Vector_base.4" = type { %"struct.std::_Vector_base<PJCoordOperation, std::allocator<PJCoordOperation>>::_Vector_impl" }
%"struct.std::_Vector_base<PJCoordOperation, std::allocator<PJCoordOperation>>::_Vector_impl" = type { %"struct.std::_Vector_base<PJCoordOperation, std::allocator<PJCoordOperation>>::_Vector_impl_data" }
%"struct.std::_Vector_base<PJCoordOperation, std::allocator<PJCoordOperation>>::_Vector_impl_data" = type { ptr, ptr, ptr }
%"struct.(anonymous namespace)::pj_lagrng" = type { double, double, double, double, double, double }
%struct.PJ_LP = type { double, double }
%struct.PJ_XY = type { double, double }

; Function Attrs: mustprogress uwtable
define internal { double, double } @_ZL16lagrng_s_inverse5PJ_XYP8PJconsts(double %0, double %1, ptr noundef %2) #0 {
  %4 = alloca %struct.PJ_LP, align 8
  %5 = alloca %struct.PJ_XY, align 8
  %6 = alloca ptr, align 8
  %7 = alloca ptr, align 8
  %8 = alloca double, align 8
  %9 = alloca double, align 8
  %10 = alloca double, align 8
  %11 = alloca double, align 8
  %12 = alloca i32, align 4
  %13 = getelementptr inbounds nuw { double, double }, ptr %5, i32 0, i32 0
  store double %0, ptr %13, align 8
  %14 = getelementptr inbounds nuw { double, double }, ptr %5, i32 0, i32 1
  store double %1, ptr %14, align 8
  store ptr %2, ptr %6, align 8, !tbaa !3
  call void @llvm.memset.p0.i64(ptr align 8 %4, i8 0, i64 16, i1 false)
  call void @llvm.lifetime.start.p0(i64 8, ptr %7) #7
  %15 = load ptr, ptr %6, align 8, !tbaa !3
  %16 = getelementptr inbounds nuw %struct.PJconsts, ptr %15, i32 0, i32 11
  %17 = load ptr, ptr %16, align 8, !tbaa !43
  store ptr %17, ptr %7, align 8, !tbaa !41
  call void @llvm.lifetime.start.p0(i64 8, ptr %8) #7
  call void @llvm.lifetime.start.p0(i64 8, ptr %9) #7
  call void @llvm.lifetime.start.p0(i64 8, ptr %10) #7
  call void @llvm.lifetime.start.p0(i64 8, ptr %11) #7
  %18 = getelementptr inbounds nuw %struct.PJ_XY, ptr %5, i32 0, i32 1
  %19 = load double, ptr %18, align 8, !tbaa !59
  %20 = call double @llvm.fabs.f64(double %19)
  %21 = fsub double %20, 2.000000e+00
  %22 = call double @llvm.fabs.f64(double %21)
  %23 = fcmp olt double %22, 1.000000e-10
  br i1 %23, label %24, label %31

24:                                               ; preds = %3
  %25 = getelementptr inbounds nuw %struct.PJ_XY, ptr %5, i32 0, i32 1
  %26 = load double, ptr %25, align 8, !tbaa !59
  %27 = fcmp olt double %26, 0.000000e+00
  %28 = select i1 %27, double 0xBFF921FB54442D18, double 0x3FF921FB54442D18
  %29 = getelementptr inbounds nuw %struct.PJ_LP, ptr %4, i32 0, i32 1
  store double %28, ptr %29, align 8, !tbaa !61
  %30 = getelementptr inbounds nuw %struct.PJ_LP, ptr %4, i32 0, i32 0
  store double 0.000000e+00, ptr %30, align 8, !tbaa !63
  br label %85

31:                                               ; preds = %3
  %32 = getelementptr inbounds nuw %struct.PJ_XY, ptr %5, i32 0, i32 0
  %33 = load double, ptr %32, align 8, !tbaa !64
  %34 = getelementptr inbounds nuw %struct.PJ_XY, ptr %5, i32 0, i32 0
  %35 = load double, ptr %34, align 8, !tbaa !64
  %36 = fmul double %33, %35
  store double %36, ptr %9, align 8, !tbaa !53
  %37 = getelementptr inbounds nuw %struct.PJ_XY, ptr %5, i32 0, i32 1
  %38 = load double, ptr %37, align 8, !tbaa !59
  %39 = fadd double 2.000000e+00, %38
  store double %39, ptr %10, align 8, !tbaa !53
  %40 = getelementptr inbounds nuw %struct.PJ_XY, ptr %5, i32 0, i32 1
  %41 = load double, ptr %40, align 8, !tbaa !59
  %42 = fsub double 2.000000e+00, %41
  store double %42, ptr %11, align 8, !tbaa !53
  %43 = load double, ptr %10, align 8, !tbaa !53
  %44 = load double, ptr %11, align 8, !tbaa !53
  %45 = load double, ptr %9, align 8, !tbaa !53
  %46 = fneg double %45
  %47 = call double @llvm.fmuladd.f64(double %43, double %44, double %46)
  store double %47, ptr %8, align 8, !tbaa !53
  %48 = load double, ptr %8, align 8, !tbaa !53
  %49 = call double @llvm.fabs.f64(double %48)
  %50 = fcmp olt double %49, 1.000000e-10
  br i1 %50, label %51, label %54

51:                                               ; preds = %31
  %52 = load ptr, ptr %6, align 8, !tbaa !3
  %53 = call i32 @proj_errno_set(ptr noundef %52, i32 noundef 2050)
  store i32 1, ptr %12, align 4
  br label %86

54:                                               ; preds = %31
  %55 = load double, ptr %10, align 8, !tbaa !53
  %56 = load double, ptr %10, align 8, !tbaa !53
  %57 = load double, ptr %9, align 8, !tbaa !53
  %58 = call double @llvm.fmuladd.f64(double %55, double %56, double %57)
  %59 = load ptr, ptr %7, align 8, !tbaa !41
  %60 = getelementptr inbounds nuw %"struct.(anonymous namespace)::pj_lagrng", ptr %59, i32 0, i32 1
  %61 = load double, ptr %60, align 8, !tbaa !55
  %62 = load double, ptr %11, align 8, !tbaa !53
  %63 = load double, ptr %11, align 8, !tbaa !53
  %64 = load double, ptr %9, align 8, !tbaa !53
  %65 = call double @llvm.fmuladd.f64(double %62, double %63, double %64)
  %66 = fmul double %61, %65
  %67 = fdiv double %58, %66
  %68 = load ptr, ptr %7, align 8, !tbaa !41
  %69 = getelementptr inbounds nuw %"struct.(anonymous namespace)::pj_lagrng", ptr %68, i32 0, i32 3
  %70 = load double, ptr %69, align 8, !tbaa !49
  %71 = call double @pow(double noundef %67, double noundef %70) #7, !tbaa !52
  %72 = call double @atan(double noundef %71) #7, !tbaa !52
  %73 = call double @llvm.fmuladd.f64(double 2.000000e+00, double %72, double 0xBFF921FB54442D18)
  %74 = getelementptr inbounds nuw %struct.PJ_LP, ptr %4, i32 0, i32 1
  store double %73, ptr %74, align 8, !tbaa !61
  %75 = load ptr, ptr %7, align 8, !tbaa !41
  %76 = getelementptr inbounds nuw %"struct.(anonymous namespace)::pj_lagrng", ptr %75, i32 0, i32 5
  %77 = load double, ptr %76, align 8, !tbaa !47
  %78 = getelementptr inbounds nuw %struct.PJ_XY, ptr %5, i32 0, i32 0
  %79 = load double, ptr %78, align 8, !tbaa !64
  %80 = fmul double 4.000000e+00, %79
  %81 = load double, ptr %8, align 8, !tbaa !53
  %82 = call double @atan2(double noundef %80, double noundef %81) #7, !tbaa !52
  %83 = fmul double %77, %82
  %84 = getelementptr inbounds nuw %struct.PJ_LP, ptr %4, i32 0, i32 0
  store double %83, ptr %84, align 8, !tbaa !63
  br label %85

85:                                               ; preds = %54, %24
  store i32 1, ptr %12, align 4
  br label %86

86:                                               ; preds = %85, %51
  call void @llvm.lifetime.end.p0(i64 8, ptr %11) #7
  call void @llvm.lifetime.end.p0(i64 8, ptr %10) #7
  call void @llvm.lifetime.end.p0(i64 8, ptr %9) #7
  call void @llvm.lifetime.end.p0(i64 8, ptr %8) #7
  call void @llvm.lifetime.end.p0(i64 8, ptr %7) #7
  %87 = load { double, double }, ptr %4, align 8
  ret { double, double } %87
}