; Function Attrs: mustprogress uwtable
define internal { double, double } @_ZL16lagrng_s_inverse5PJ_XYP8PJconsts(double %0, double %1, ptr noundef %2) #0 {
  %4 = getelementptr inbounds nuw i8, ptr %2, i64 88
  %5 = load ptr, ptr %4, align 8, !tbaa !40
  %6 = tail call double @llvm.fabs.f64(double %1)
  %7 = fadd double %6, -2.000000e+00
  %8 = tail call double @llvm.fabs.f64(double %7)
  %9 = fcmp olt double %8, 1.000000e-10
  br i1 %9, label %10, label %13

10:                                               ; preds = %3
  %11 = fcmp olt double %1, 0.000000e+00
  %12 = select i1 %11, double 0xBFF921FB54442D18, double 0x3FF921FB54442D18
  br label %40

13:                                               ; preds = %3
  %14 = fmul double %0, %0
  %15 = fadd double %1, 2.000000e+00
  %16 = fsub double 2.000000e+00, %1
  %17 = fneg double %14
  %18 = tail call double @llvm.fmuladd.f64(double %15, double %16, double %17)
  %19 = tail call double @llvm.fabs.f64(double %18)
  %20 = fcmp olt double %19, 1.000000e-10
  br i1 %20, label %21, label %23

21:                                               ; preds = %13
  %22 = tail call i32 @proj_errno_set(ptr noundef nonnull %2, i32 noundef 2050)
  br label %40

23:                                               ; preds = %13
  %24 = tail call double @llvm.fmuladd.f64(double %15, double %15, double %14)
  %25 = getelementptr inbounds nuw i8, ptr %5, i64 8
  %26 = load double, ptr %25, align 8, !tbaa !50
  %27 = tail call double @llvm.fmuladd.f64(double %16, double %16, double %14)
  %28 = fmul double %27, %26
  %29 = fdiv double %24, %28
  %30 = getelementptr inbounds nuw i8, ptr %5, i64 24
  %31 = load double, ptr %30, align 8, !tbaa !45
  %32 = tail call double @pow(double noundef %29, double noundef %31) #6, !tbaa !48
  %33 = tail call double @atan(double noundef %32) #6, !tbaa !48
  %34 = tail call double @llvm.fmuladd.f64(double %33, double 2.000000e+00, double 0xBFF921FB54442D18)
  %35 = getelementptr inbounds nuw i8, ptr %5, i64 40
  %36 = load double, ptr %35, align 8, !tbaa !43
  %37 = fmul double %0, 4.000000e+00
  %38 = tail call double @atan2(double noundef %37, double noundef %18) #6, !tbaa !48
  %39 = fmul double %36, %38
  br label %40

40:                                               ; preds = %10, %23, %21
  %.sroa.422.1 = phi double [ 0.000000e+00, %21 ], [ %12, %10 ], [ %34, %23 ]
  %.sroa.021.1 = phi double [ 0.000000e+00, %21 ], [ 0.000000e+00, %10 ], [ %39, %23 ]
  %.fca.0.insert = insertvalue { double, double } poison, double %.sroa.021.1, 0
  %.fca.1.insert = insertvalue { double, double } %.fca.0.insert, double %.sroa.422.1, 1
  ret { double, double } %.fca.1.insert
}